target datalayout = "e-m:e-p270:32:32-p271:32:32-p272:64:64-i64:64-i128:128-f80:128-n8:16:32:64-S128"
target triple = "x86_64-unknown-linux-gnu"

%"class.std::__cxx11::basic_string" = type { %"struct.std::__cxx11::basic_string<char>::_Alloc_hider", i64, %union.anon }
%"struct.std::__cxx11::basic_string<char>::_Alloc_hider" = type { ptr }
%union.anon = type { i64, [8 x i8] }
%"class.google::protobuf::io::(anonymous namespace)::CommentCollector" = type { ptr, ptr, ptr, %"class.std::__cxx11::basic_string", i32, i8, i8, i8, i8 }
%"class.__gnu_cxx::__normal_iterator" = type { ptr }
%"struct.std::_Vector_base" = type { %"struct.std::_Vector_base<std::__cxx11::basic_string<char>, std::allocator<std::__cxx11::basic_string<char>>>::_Vector_impl" }
%"struct.std::_Vector_base<std::__cxx11::basic_string<char>, std::allocator<std::__cxx11::basic_string<char>>>::_Vector_impl" = type { %"struct.std::_Vector_base<std::__cxx11::basic_string<char>, std::allocator<std::__cxx11::basic_string<char>>>::_Vector_impl_data" }
%"struct.std::_Vector_base<std::__cxx11::basic_string<char>, std::allocator<std::__cxx11::basic_string<char>>>::_Vector_impl_data" = type { ptr, ptr, ptr }

; Function Attrs: mustprogress nounwind uwtable
define linkonce_odr hidden void @_ZN9__gnu_cxx17__normal_iteratorIPNSt7__cxx1112basic_stringIcSt11char_traitsIcESaIcEEESt6vectorIS6_SaIS6_EEEC2ERKS7_(ptr noundef nonnull align 8 dereferenceable(8) %this, ptr noundef nonnull align 8 dereferenceable(8) %__i) unnamed_addr #4 comdat align 2 {
entry:
  %this.addr = alloca ptr, align 8
  %__i.addr = alloca ptr, align 8
  store ptr %this, ptr %this.addr, align 8
  store ptr %__i, ptr %__i.addr, align 8
  %this1 = load ptr, ptr %this.addr, align 8
  %_M_current = getelementptr inbounds %"class.__gnu_cxx::__normal_iterator", ptr %this1, i32 0, i32 0
  %0 = load ptr, ptr %__i.addr, align 8
  %1 = load ptr, ptr %0, align 8
  store ptr %1, ptr %_M_current, align 8
  ret void
}

; Function Attrs: mustprogress uwtable
define linkonce_odr hidden void @_ZNSt15__new_allocatorINSt7__cxx1112basic_stringIcSt11char_traitsIcESaIcEEEE9constructIS5_JRKS5_EEEvPT_DpOT0_(ptr noundef nonnull align 1 dereferenceable(1) %this, ptr noundef %__p, ptr noundef nonnull align 8 dereferenceable(32) %__args) #6 comdat align 2 {
entry:
  %this.addr = alloca ptr, align 8
  %__p.addr = alloca ptr, align 8
  %__args.addr = alloca ptr, align 8
  store ptr %this, ptr %this.addr, align 8
  store ptr %__p, ptr %__p.addr, align 8
  store ptr %__args, ptr %__args.addr, align 8
  %0 = load ptr, ptr %__p.addr, align 8
  %1 = load ptr, ptr %__args.addr, align 8
  call void @_ZNSt7__cxx1112basic_stringIcSt11char_traitsIcESaIcEEC1ERKS4_(ptr noundef nonnull align 8 dereferenceable(32) %0, ptr noundef nonnull align 8 dereferenceable(32) %1)
  ret void
}

; Function Attrs: mustprogress nounwind uwtable
define linkonce_odr hidden ptr @_ZNSt6vectorINSt7__cxx1112basic_stringIcSt11char_traitsIcESaIcEEESaIS5_EE3endEv(ptr noundef nonnull align 8 dereferenceable(24) %this) #4 comdat align 2 {
entry:
  %retval = alloca %"class.__gnu_cxx::__normal_iterator", align 8
  %this.addr = alloca ptr, align 8
  store ptr %this, ptr %this.addr, align 8
  %this1 = load ptr, ptr %this.addr, align 8
  %_M_impl = getelementptr inbounds %"struct.std::_Vector_base", ptr %this1, i32 0, i32 0
  %_M_finish = getelementptr inbounds %"struct.std::_Vector_base<std::__cxx11::basic_string<char>, std::allocator<std::__cxx11::basic_string<char>>>::_Vector_impl_data", ptr %_M_impl, i32 0, i32 1
  call void @_ZN9__gnu_cxx17__normal_iteratorIPNSt7__cxx1112basic_stringIcSt11char_traitsIcESaIcEEESt6vectorIS6_SaIS6_EEEC2ERKS7_(ptr noundef nonnull align 8 dereferenceable(8) %retval, ptr noundef nonnull align 8 dereferenceable(8) %_M_finish) #3
  %coerce.dive = getelementptr inbounds %"class.__gnu_cxx::__normal_iterator", ptr %retval, i32 0, i32 0
  %0 = load ptr, ptr %coerce.dive, align 8
  ret ptr %0
}

; Function Attrs: mustprogress uwtable
define linkonce_odr hidden void @_ZNSt16allocator_traitsISaINSt7__cxx1112basic_stringIcSt11char_traitsIcESaIcEEEEE9constructIS5_JRKS5_EEEvRS6_PT_DpOT0_(ptr noundef nonnull align 1 dereferenceable(1) %__a, ptr noundef %__p, ptr noundef nonnull align 8 dereferenceable(32) %__args) #6 comdat align 2 {
entry:
  %__a.addr = alloca ptr, align 8
  %__p.addr = alloca ptr, align 8
  %__args.addr = alloca ptr, align 8
  store ptr %__a, ptr %__a.addr, align 8
  store ptr %__p, ptr %__p.addr, align 8
  store ptr %__args, ptr %__args.addr, align 8
  %0 = load ptr, ptr %__a.addr, align 8
  %1 = load ptr, ptr %__p.addr, align 8
  %2 = load ptr, ptr %__args.addr, align 8
  call void @_ZNSt15__new_allocatorINSt7__cxx1112basic_stringIcSt11char_traitsIcESaIcEEEE9constructIS5_JRKS5_EEEvPT_DpOT0_(ptr noundef nonnull align 1 dereferenceable(1) %0, ptr noundef %1, ptr noundef nonnull align 8 dereferenceable(32) %2)
  ret void
}

; Function Attrs: mustprogress nounwind uwtable
define internal void @_ZN6google8protobuf2io12_GLOBAL__N_116CommentCollector11ClearBufferEv(ptr noundef nonnull align 8 dereferenceable(64) %this) #4 align 2 {
entry:
  %this.addr = alloca ptr, align 8
  store ptr %this, ptr %this.addr, align 8
  %this1 = load ptr, ptr %this.addr, align 8
  %comment_buffer_ = getelementptr inbounds %"class.google::protobuf::io::(anonymous namespace)::CommentCollector", ptr %this1, i32 0, i32 3
  call void @_ZNSt7__cxx1112basic_stringIcSt11char_traitsIcESaIcEE5clearEv(ptr noundef nonnull align 8 dereferenceable(32) %comment_buffer_) #3
  %has_comment_ = getelementptr inbounds %"class.google::protobuf::io::(anonymous namespace)::CommentCollector", ptr %this1, i32 0, i32 6
  store i8 0, ptr %has_comment_, align 1
  ret void
}

; Function Attrs: mustprogress uwtable
define linkonce_odr hidden void @_ZNSt6vectorINSt7__cxx1112basic_stringIcSt11char_traitsIcESaIcEEESaIS5_EE9push_backERKS5_(ptr noundef nonnull align 8 dereferenceable(24) %this, ptr noundef nonnull align 8 dereferenceable(32) %__x) #6 comdat align 2 {
entry:
  %this.addr = alloca ptr, align 8
  %__x.addr = alloca ptr, align 8
  %agg.tmp = alloca %"class.__gnu_cxx::__normal_iterator", align 8
  store ptr %this, ptr %this.addr, align 8
  store ptr %__x, ptr %__x.addr, align 8
  %this1 = load ptr, ptr %this.addr, align 8
  %_M_impl = getelementptr inbounds %"struct.std::_Vector_base", ptr %this1, i32 0, i32 0
  %_M_finish = getelementptr inbounds %"struct.std::_Vector_base<std::__cxx11::basic_string<char>, std::allocator<std::__cxx11::basic_string<char>>>::_Vector_impl_data", ptr %_M_impl, i32 0, i32 1
  %0 = load ptr, ptr %_M_finish, align 8
  %_M_impl2 = getelementptr inbounds %"struct.std::_Vector_base", ptr %this1, i32 0, i32 0
  %_M_end_of_storage = getelementptr inbounds %"struct.std::_Vector_base<std::__cxx11::basic_string<char>, std::allocator<std::__cxx11::basic_string<char>>>::_Vector_impl_data", ptr %_M_impl2, i32 0, i32 2
  %1 = load ptr, ptr %_M_end_of_storage, align 8
  %cmp = icmp ne ptr %0, %1
  br i1 %cmp, label %if.then, label %if.else

if.then:                                          ; preds = %entry
  %_M_impl3 = getelementptr inbounds %"struct.std::_Vector_base", ptr %this1, i32 0, i32 0
  %_M_impl4 = getelementptr inbounds %"struct.std::_Vector_base", ptr %this1, i32 0, i32 0
  %_M_finish5 = getelementptr inbounds %"struct.std::_Vector_base<std::__cxx11::basic_string<char>, std::allocator<std::__cxx11::basic_string<char>>>::_Vector_impl_data", ptr %_M_impl4, i32 0, i32 1
  %2 = load ptr, ptr %_M_finish5, align 8
  %3 = load ptr, ptr %__x.addr, align 8
  call void @_ZNSt16allocator_traitsISaINSt7__cxx1112basic_stringIcSt11char_traitsIcESaIcEEEEE9constructIS5_JRKS5_EEEvRS6_PT_DpOT0_(ptr noundef nonnull align 1 dereferenceable(1) %_M_impl3, ptr noundef %2, ptr noundef nonnull align 8 dereferenceable(32) %3)
  %_M_impl6 = getelementptr inbounds %"struct.std::_Vector_base", ptr %this1, i32 0, i32 0
  %_M_finish7 = getelementptr inbounds %"struct.std::_Vector_base<std::__cxx11::basic_string<char>, std::allocator<std::__cxx11::basic_string<char>>>::_Vector_impl_data", ptr %_M_impl6, i32 0, i32 1
  %4 = load ptr, ptr %_M_finish7, align 8
  %incdec.ptr = getelementptr inbounds %"class.std::__cxx11::basic_string", ptr %4, i32 1
  store ptr %incdec.ptr, ptr %_M_finish7, align 8
  br label %if.end

if.else:                                          ; preds = %entry
  %call = call ptr @_ZNSt6vectorINSt7__cxx1112basic_stringIcSt11char_traitsIcESaIcEEESaIS5_EE3endEv(ptr noundef nonnull align 8 dereferenceable(24) %this1) #3
  %coerce.dive = getelementptr inbounds %"class.__gnu_cxx::__normal_iterator", ptr %agg.tmp, i32 0, i32 0
  store ptr %call, ptr %coerce.dive, align 8
  %5 = load ptr, ptr %__x.addr, align 8
  %coerce.dive8 = getelementptr inbounds %"class.__gnu_cxx::__normal_iterator", ptr %agg.tmp, i32 0, i32 0
  %6 = load ptr, ptr %coerce.dive8, align 8
  call void @_ZNSt6vectorINSt7__cxx1112basic_stringIcSt11char_traitsIcESaIcEEESaIS5_EE17_M_realloc_insertIJRKS5_EEEvN9__gnu_cxx17__normal_iteratorIPS5_S7_EEDpOT_(ptr noundef nonnull align 8 dereferenceable(24) %this1, ptr %6, ptr noundef nonnull align 8 dereferenceable(32) %5)
  br label %if.end

if.end:                                           ; preds = %if.else, %if.then
  ret void
}

; Function Attrs: mustprogress uwtable
define internal void @_ZN6google8protobuf2io12_GLOBAL__N_116CommentCollector5FlushEv(ptr noundef nonnull align 8 dereferenceable(64) %this) #6 align 2 {
entry:
  %this.addr = alloca ptr, align 8
  store ptr %this, ptr %this.addr, align 8
  %this1 = load ptr, ptr %this.addr, align 8
  %has_comment_ = getelementptr inbounds %"class.google::protobuf::io::(anonymous namespace)::CommentCollector", ptr %this1, i32 0, i32 6
  %0 = load i8, ptr %has_comment_, align 1
  %tobool = trunc i8 %0 to i1
  br i1 %tobool, label %if.then, label %if.end13

if.then:                                          ; preds = %entry
  %can_attach_to_prev_ = getelementptr inbounds %"class.google::protobuf::io::(anonymous namespace)::CommentCollector", ptr %this1, i32 0, i32 8
  %1 = load i8, ptr %can_attach_to_prev_, align 1
  %tobool2 = trunc i8 %1 to i1
  br i1 %tobool2, label %if.then3, label %if.else

if.then3:                                         ; preds = %if.then
  %prev_trailing_comments_ = getelementptr inbounds %"class.google::protobuf::io::(anonymous namespace)::CommentCollector", ptr %this1, i32 0, i32 0
  %2 = load ptr, ptr %prev_trailing_comments_, align 8
  %cmp = icmp ne ptr %2, null
  br i1 %cmp, label %if.then4, label %if.end

if.then4:                                         ; preds = %if.then3
  %prev_trailing_comments_5 = getelementptr inbounds %"class.google::protobuf::io::(anonymous namespace)::CommentCollector", ptr %this1, i32 0, i32 0
  %3 = load ptr, ptr %prev_trailing_comments_5, align 8
  %comment_buffer_ = getelementptr inbounds %"class.google::protobuf::io::(anonymous namespace)::CommentCollector", ptr %this1, i32 0, i32 3
  %call = call noundef nonnull align 8 dereferenceable(32) ptr @_ZNSt7__cxx1112basic_stringIcSt11char_traitsIcESaIcEE6appendERKS4_(ptr noundef nonnull align 8 dereferenceable(32) %3, ptr noundef nonnull align 8 dereferenceable(32) %comment_buffer_)
  br label %if.end

if.end:                                           ; preds = %if.then4, %if.then3
  %has_trailing_comment_ = getelementptr inbounds %"class.google::protobuf::io::(anonymous namespace)::CommentCollector", ptr %this1, i32 0, i32 5
  store i8 1, ptr %has_trailing_comment_, align 4
  %can_attach_to_prev_6 = getelementptr inbounds %"class.google::protobuf::io::(anonymous namespace)::CommentCollector", ptr %this1, i32 0, i32 8
  store i8 0, ptr %can_attach_to_prev_6, align 1
  br label %if.end12

if.else:                                          ; preds = %if.then
  %detached_comments_ = getelementptr inbounds %"class.google::protobuf::io::(anonymous namespace)::CommentCollector", ptr %this1, i32 0, i32 1
  %4 = load ptr, ptr %detached_comments_, align 8
  %cmp7 = icmp ne ptr %4, null
  br i1 %cmp7, label %if.then8, label %if.end11

if.then8:                                         ; preds = %if.else
  %detached_comments_9 = getelementptr inbounds %"class.google::protobuf::io::(anonymous namespace)::CommentCollector", ptr %this1, i32 0, i32 1
  %5 = load ptr, ptr %detached_comments_9, align 8
  %comment_buffer_10 = getelementptr inbounds %"class.google::protobuf::io::(anonymous namespace)::CommentCollector", ptr %this1, i32 0, i32 3
  call void @_ZNSt6vectorINSt7__cxx1112basic_stringIcSt11char_traitsIcESaIcEEESaIS5_EE9push_backERKS5_(ptr noundef nonnull align 8 dereferenceable(24) %5, ptr noundef nonnull align 8 dereferenceable(32) %comment_buffer_10)
  br label %if.end11

if.end11:                                         ; preds = %if.then8, %if.else
  br label %if.end12

if.end12:                                         ; preds = %if.end11, %if.end
  call void @_ZN6google8protobuf2io12_GLOBAL__N_116CommentCollector11ClearBufferEv(ptr noundef nonnull align 8 dereferenceable(64) %this1)
  %num_comments_ = getelementptr inbounds %"class.google::protobuf::io::(anonymous namespace)::CommentCollector", ptr %this1, i32 0, i32 4
  %6 = load i32, ptr %num_comments_, align 8
  %inc = add nsw i32 %6, 1
  store i32 %inc, ptr %num_comments_, align 8
  br label %if.end13

if.end13:                                         ; preds = %if.end12, %entry
  ret void
}

; Function Attrs: mustprogress uwtable
define internal noundef ptr @_ZN6google8protobuf2io12_GLOBAL__N_116CommentCollector23GetBufferForLineCommentB5cxx11Ev(ptr noundef nonnull align 8 dereferenceable(64) %this) #6 align 2 {
entry:
  %this.addr = alloca ptr, align 8
  store ptr %this, ptr %this.addr, align 8
  %this1 = load ptr, ptr %this.addr, align 8
  %has_comment_ = getelementptr inbounds %"class.google::protobuf::io::(anonymous namespace)::CommentCollector", ptr %this1, i32 0, i32 6
  %0 = load i8, ptr %has_comment_, align 1
  %tobool = trunc i8 %0 to i1
  br i1 %tobool, label %land.lhs.true, label %if.end

land.lhs.true:                                    ; preds = %entry
  %is_line_comment_ = getelementptr inbounds %"class.google::protobuf::io::(anonymous namespace)::CommentCollector", ptr %this1, i32 0, i32 7
  %1 = load i8, ptr %is_line_comment_, align 2
  %tobool2 = trunc i8 %1 to i1
  br i1 %tobool2, label %if.end, label %if.then

if.then:                                          ; preds = %land.lhs.true
  call void @_ZN6google8protobuf2io12_GLOBAL__N_116CommentCollector5FlushEv(ptr noundef nonnull align 8 dereferenceable(64) %this1)
  br label %if.end

if.end:                                           ; preds = %if.then, %land.lhs.true, %entry
  %has_comment_3 = getelementptr inbounds %"class.google::protobuf::io::(anonymous namespace)::CommentCollector", ptr %this1, i32 0, i32 6
  store i8 1, ptr %has_comment_3, align 1
  %is_line_comment_4 = getelementptr inbounds %"class.google::protobuf::io::(anonymous namespace)::CommentCollector", ptr %this1, i32 0, i32 7
  store i8 1, ptr %is_line_comment_4, align 2
  %comment_buffer_ = getelementptr inbounds %"class.google::protobuf::io::(anonymous namespace)::CommentCollector", ptr %this1, i32 0, i32 3
  ret ptr %comment_buffer_
}