; Function Attrs: mustprogress uwtable
define internal fastcc noundef nonnull ptr @_ZN6google8protobuf2io12_GLOBAL__N_116CommentCollector23GetBufferForLineCommentB5cxx11Ev(ptr noundef nonnull align 8 dereferenceable(64) %this) unnamed_addr #6 align 2 {
entry:
  %has_comment_ = getelementptr inbounds nuw i8, ptr %this, i64 61
  %0 = load i8, ptr %has_comment_, align 1
  %tobool = trunc i8 %0 to i1
  br i1 %tobool, label %land.lhs.true, label %if.end

land.lhs.true:                                    ; preds = %entry
  %is_line_comment_ = getelementptr inbounds nuw i8, ptr %this, i64 62
  %1 = load i8, ptr %is_line_comment_, align 2
  %tobool2 = trunc i8 %1 to i1
  br i1 %tobool2, label %if.end, label %if.then.i

if.then.i:                                        ; preds = %land.lhs.true
  %can_attach_to_prev_.i = getelementptr inbounds nuw i8, ptr %this, i64 63
  %2 = load i8, ptr %can_attach_to_prev_.i, align 1
  %tobool2.i = trunc i8 %2 to i1
  br i1 %tobool2.i, label %if.then3.i, label %if.else.i

if.then3.i:                                       ; preds = %if.then.i
  %3 = load ptr, ptr %this, align 8
  %cmp.not.i = icmp eq ptr %3, null
  br i1 %cmp.not.i, label %if.end.i, label %if.then4.i

if.then4.i:                                       ; preds = %if.then3.i
  %comment_buffer_.i = getelementptr inbounds nuw i8, ptr %this, i64 24
  %call.i = tail call noundef nonnull align 8 dereferenceable(32) ptr @_ZNSt7__cxx1112basic_stringIcSt11char_traitsIcESaIcEE6appendERKS4_(ptr noundef nonnull align 8 dereferenceable(32) %3, ptr noundef nonnull align 8 dereferenceable(32) %comment_buffer_.i)
  br label %if.end.i

if.end.i:                                         ; preds = %if.then4.i, %if.then3.i
  %has_trailing_comment_.i = getelementptr inbounds nuw i8, ptr %this, i64 60
  store i8 1, ptr %has_trailing_comment_.i, align 4
  store i8 0, ptr %can_attach_to_prev_.i, align 1
  br label %_ZN6google8protobuf2io12_GLOBAL__N_116CommentCollector5FlushEv.exit

if.else.i:                                        ; preds = %if.then.i
  %detached_comments_.i = getelementptr inbounds nuw i8, ptr %this, i64 8
  %4 = load ptr, ptr %detached_comments_.i, align 8
  %cmp7.not.i = icmp eq ptr %4, null
  br i1 %cmp7.not.i, label %_ZN6google8protobuf2io12_GLOBAL__N_116CommentCollector5FlushEv.exit, label %if.then8.i

if.then8.i:                                       ; preds = %if.else.i
  %comment_buffer_10.i = getelementptr inbounds nuw i8, ptr %this, i64 24
  %_M_finish.i.i = getelementptr inbounds nuw i8, ptr %4, i64 8
  %5 = load ptr, ptr %_M_finish.i.i, align 8
  %_M_end_of_storage.i.i = getelementptr inbounds nuw i8, ptr %4, i64 16
  %6 = load ptr, ptr %_M_end_of_storage.i.i, align 8
  %cmp.not.i.i = icmp eq ptr %5, %6
  br i1 %cmp.not.i.i, label %if.else.i.i, label %if.then.i.i

if.then.i.i:                                      ; preds = %if.then8.i
  tail call void @_ZNSt7__cxx1112basic_stringIcSt11char_traitsIcESaIcEEC1ERKS4_(ptr noundef nonnull align 8 dereferenceable(32) %5, ptr noundef nonnull align 8 dereferenceable(32) %comment_buffer_10.i)
  %7 = load ptr, ptr %_M_finish.i.i, align 8
  %incdec.ptr.i.i = getelementptr inbounds nuw i8, ptr %7, i64 32
  store ptr %incdec.ptr.i.i, ptr %_M_finish.i.i, align 8
  br label %_ZN6google8protobuf2io12_GLOBAL__N_116CommentCollector5FlushEv.exit

if.else.i.i:                                      ; preds = %if.then8.i
  tail call void @_ZNSt6vectorINSt7__cxx1112basic_stringIcSt11char_traitsIcESaIcEEESaIS5_EE17_M_realloc_insertIJRKS5_EEEvN9__gnu_cxx17__normal_iteratorIPS5_S7_EEDpOT_(ptr noundef nonnull align 8 dereferenceable(24) %4, ptr %5, ptr noundef nonnull align 8 dereferenceable(32) %comment_buffer_10.i)
  br label %_ZN6google8protobuf2io12_GLOBAL__N_116CommentCollector5FlushEv.exit

_ZN6google8protobuf2io12_GLOBAL__N_116CommentCollector5FlushEv.exit: ; preds = %if.end.i, %if.else.i, %if.then.i.i, %if.else.i.i
  %comment_buffer_.i.i = getelementptr inbounds nuw i8, ptr %this, i64 24
  tail call void @_ZNSt7__cxx1112basic_stringIcSt11char_traitsIcESaIcEE5clearEv(ptr noundef nonnull align 8 dereferenceable(32) %comment_buffer_.i.i) #23
  %num_comments_.i = getelementptr inbounds nuw i8, ptr %this, i64 56
  %8 = load i32, ptr %num_comments_.i, align 8
  %inc.i = add nsw i32 %8, 1
  store i32 %inc.i, ptr %num_comments_.i, align 8
  br label %if.end

if.end:                                           ; preds = %_ZN6google8protobuf2io12_GLOBAL__N_116CommentCollector5FlushEv.exit, %land.lhs.true, %entry
  store i8 1, ptr %has_comment_, align 1
  %is_line_comment_4 = getelementptr inbounds nuw i8, ptr %this, i64 62
  store i8 1, ptr %is_line_comment_4, align 2
  %comment_buffer_ = getelementptr inbounds nuw i8, ptr %this, i64 24
  ret ptr %comment_buffer_
}